target datalayout = "e-m:e-p270:32:32-p271:32:32-p272:64:64-i64:64-i128:128-f80:128-n8:16:32:64-S128"
target triple = "x86_64-pc-linux-gnu"

%"struct.folly::operator_delete_fn" = type { i8 }
%"struct.folly::detail::op_del_library_fn_" = type { i8 }
%"class.folly::exception_shared_string" = type { i64 }
%"struct.folly::exception_shared_string::state" = type { %"struct.std::atomic.1", i64 }
%"struct.std::atomic.1" = type { %"struct.std::__atomic_base.2" }
%"struct.std::__atomic_base.2" = type { i64 }

@_ZN5folly15operator_deleteE = linkonce_odr constant %"struct.folly::operator_delete_fn" undef, comdat, align 1
@_ZN5folly6detail7op_del_ILb1ELb0EEE = linkonce_odr constant %"struct.folly::detail::op_del_library_fn_" zeroinitializer, comdat, align 1

; Function Attrs: alwaysinline mustprogress nounwind uwtable
define linkonce_odr hidden void @_ZNK5folly6detail18op_del_library_fn_clIJRKPvRKmRKSt11align_val_tEEEDTclgsondlspscT_fp_EEDpOSB_(ptr noundef nonnull align 1 dereferenceable(1) %0, ptr noundef nonnull align 8 dereferenceable(8) %1, ptr noundef nonnull align 8 dereferenceable(8) %2, ptr noundef nonnull align 8 dereferenceable(8) %3) #4 comdat align 2 {
  %5 = alloca ptr, align 8
  %6 = alloca ptr, align 8
  %7 = alloca ptr, align 8
  %8 = alloca ptr, align 8
  store ptr %0, ptr %5, align 8, !tbaa !113
  store ptr %1, ptr %6, align 8, !tbaa !30
  store ptr %2, ptr %7, align 8, !tbaa !102
  store ptr %3, ptr %8, align 8, !tbaa !30
  %9 = load ptr, ptr %6, align 8, !tbaa !30
  %10 = load ptr, ptr %9, align 8, !tbaa !30
  %11 = load ptr, ptr %7, align 8, !tbaa !102
  %12 = load i64, ptr %11, align 8, !tbaa !46
  %13 = load ptr, ptr %8, align 8, !tbaa !30
  %14 = load i64, ptr %13, align 8, !tbaa !88
  call void @_ZdlPvmSt11align_val_t(ptr noundef %10, i64 noundef %12, i64 noundef %14) #20
  ret void
}

; Function Attrs: noinline noreturn nounwind uwtable
define linkonce_odr hidden void @__clang_call_terminate(ptr noundef %0) #5 comdat {
  %2 = call ptr @__cxa_begin_catch(ptr %0) #20
  call void @_ZSt9terminatev() #22
  unreachable
}

; Function Attrs: alwaysinline mustprogress nounwind uwtable
define linkonce_odr hidden void @_ZN5folly6detail16do_op_del_sized_ILb1EJSt11align_val_tEEEvPvmDpKT0_(ptr noundef %0, i64 noundef %1, i64 noundef %2) #4 comdat {
  %4 = alloca ptr, align 8
  %5 = alloca i64, align 8
  %6 = alloca i64, align 8
  store ptr %0, ptr %4, align 8, !tbaa !30
  store i64 %1, ptr %5, align 8, !tbaa !46
  store i64 %2, ptr %6, align 8, !tbaa !88
  call void @_ZNK5folly6detail18op_del_library_fn_clIJRKPvRKmRKSt11align_val_tEEEDTclgsondlspscT_fp_EEDpOSB_(ptr noundef nonnull align 1 dereferenceable(1) @_ZN5folly6detail7op_del_ILb1ELb0EEE, ptr noundef nonnull align 8 dereferenceable(8) %4, ptr noundef nonnull align 8 dereferenceable(8) %5, ptr noundef nonnull align 8 dereferenceable(8) %6) #20
  ret void
}

; Function Attrs: mustprogress nounwind uwtable
define linkonce_odr noundef i32 @_ZStanSt12memory_orderSt23__memory_order_modifier(i32 noundef %0, i32 noundef %1) #0 comdat {
  %3 = alloca i32, align 4
  %4 = alloca i32, align 4
  store i32 %0, ptr %3, align 4, !tbaa !20
  store i32 %1, ptr %4, align 4, !tbaa !22
  %5 = load i32, ptr %3, align 4, !tbaa !20
  %6 = load i32, ptr %4, align 4, !tbaa !22
  %7 = and i32 %5, %6
  ret i32 %7
}

; Function Attrs: alwaysinline mustprogress nounwind uwtable
define linkonce_odr hidden void @_ZNK5folly18operator_delete_fnclEPvmSt11align_val_t(ptr noundef nonnull align 1 dereferenceable(1) %0, ptr noundef %1, i64 noundef %2, i64 noundef %3) #4 comdat align 2 personality ptr @__gxx_personality_v0 {
  %5 = alloca ptr, align 8
  %6 = alloca ptr, align 8
  %7 = alloca i64, align 8
  %8 = alloca i64, align 8
  store ptr %0, ptr %5, align 8, !tbaa !111
  store ptr %1, ptr %6, align 8, !tbaa !30
  store i64 %2, ptr %7, align 8, !tbaa !46
  store i64 %3, ptr %8, align 8, !tbaa !88
  %9 = load ptr, ptr %6, align 8, !tbaa !30
  %10 = load i64, ptr %7, align 8, !tbaa !46
  %11 = load i64, ptr %8, align 8, !tbaa !88
  invoke void @_ZN5folly6detail16do_op_del_sized_ILb1EJSt11align_val_tEEEvPvmDpKT0_(ptr noundef %9, i64 noundef %10, i64 noundef %11)
          to label %12 unwind label %13

12:                                               ; preds = %4
  ret void

13:                                               ; preds = %4
  %14 = landingpad { ptr, i32 }
          catch ptr null
  %15 = extractvalue { ptr, i32 } %14, 0
  call void @__clang_call_terminate(ptr %15) #22
  unreachable
}

; Function Attrs: mustprogress nounwind uwtable
define linkonce_odr noundef i64 @_ZN5folly23exception_shared_string5state11object_sizeEm(i64 noundef %0) #0 comdat align 2 {
  %2 = alloca i64, align 8
  store i64 %0, ptr %2, align 8, !tbaa !46
  %3 = load i64, ptr %2, align 8, !tbaa !46
  %4 = add i64 16, %3
  %5 = add i64 %4, 1
  ret i64 %5
}

; Function Attrs: alwaysinline mustprogress nounwind uwtable
define linkonce_odr noundef i64 @_ZNSt13__atomic_baseImE9fetch_subEmSt12memory_order(ptr noundef nonnull align 8 dereferenceable(8) %0, i64 noundef %1, i32 noundef %2) #4 comdat align 2 {
  %4 = alloca ptr, align 8
  %5 = alloca i64, align 8
  %6 = alloca i32, align 4
  %7 = alloca i64, align 8
  %8 = alloca i64, align 8
  store ptr %0, ptr %4, align 8, !tbaa !106
  store i64 %1, ptr %5, align 8, !tbaa !46
  store i32 %2, ptr %6, align 4, !tbaa !20
  %9 = load ptr, ptr %4, align 8
  %10 = getelementptr inbounds nuw %"struct.std::__atomic_base.2", ptr %9, i32 0, i32 0
  %11 = load i32, ptr %6, align 4, !tbaa !20
  %12 = load i64, ptr %5, align 8, !tbaa !46
  store i64 %12, ptr %7, align 8, !tbaa !46
  switch i32 %11, label %13 [
    i32 1, label %16
    i32 2, label %16
    i32 3, label %19
    i32 4, label %22
    i32 5, label %25
  ]

13:                                               ; preds = %3
  %14 = load i64, ptr %7, align 8
  %15 = atomicrmw sub ptr %10, i64 %14 monotonic, align 8
  store i64 %15, ptr %8, align 8
  br label %28

16:                                               ; preds = %3, %3
  %17 = load i64, ptr %7, align 8
  %18 = atomicrmw sub ptr %10, i64 %17 acquire, align 8
  store i64 %18, ptr %8, align 8
  br label %28

19:                                               ; preds = %3
  %20 = load i64, ptr %7, align 8
  %21 = atomicrmw sub ptr %10, i64 %20 release, align 8
  store i64 %21, ptr %8, align 8
  br label %28

22:                                               ; preds = %3
  %23 = load i64, ptr %7, align 8
  %24 = atomicrmw sub ptr %10, i64 %23 acq_rel, align 8
  store i64 %24, ptr %8, align 8
  br label %28

25:                                               ; preds = %3
  %26 = load i64, ptr %7, align 8
  %27 = atomicrmw sub ptr %10, i64 %26 seq_cst, align 8
  store i64 %27, ptr %8, align 8
  br label %28

28:                                               ; preds = %25, %22, %19, %16, %13
  %29 = load i64, ptr %8, align 8, !tbaa !46
  ret i64 %29
}

; Function Attrs: alwaysinline mustprogress nounwind uwtable
define linkonce_odr noundef i64 @_ZNKSt13__atomic_baseImE4loadESt12memory_order(ptr noundef nonnull align 8 dereferenceable(8) %0, i32 noundef %1) #4 comdat align 2 {
  %3 = alloca ptr, align 8
  %4 = alloca i32, align 4
  %5 = alloca i32, align 4
  %6 = alloca i64, align 8
  store ptr %0, ptr %3, align 8, !tbaa !106
  store i32 %1, ptr %4, align 4, !tbaa !20
  %7 = load ptr, ptr %3, align 8
  call void @llvm.lifetime.start.p0(i64 4, ptr %5) #20
  %8 = load i32, ptr %4, align 4, !tbaa !20
  %9 = call noundef i32 @_ZStanSt12memory_orderSt23__memory_order_modifier(i32 noundef %8, i32 noundef 65535)
  store i32 %9, ptr %5, align 4, !tbaa !20
  br label %10

10:                                               ; preds = %2
  br label %11

11:                                               ; preds = %10
  br label %12

12:                                               ; preds = %11
  br label %13

13:                                               ; preds = %12
  br label %14

14:                                               ; preds = %13
  br label %15

15:                                               ; preds = %14
  %16 = getelementptr inbounds nuw %"struct.std::__atomic_base.2", ptr %7, i32 0, i32 0
  %17 = load i32, ptr %4, align 4, !tbaa !20
  switch i32 %17, label %18 [
    i32 1, label %20
    i32 2, label %20
    i32 5, label %22
  ]

18:                                               ; preds = %15
  %19 = load atomic i64, ptr %16 monotonic, align 8
  store i64 %19, ptr %6, align 8
  br label %24

20:                                               ; preds = %15, %15
  %21 = load atomic i64, ptr %16 acquire, align 8
  store i64 %21, ptr %6, align 8
  br label %24

22:                                               ; preds = %15
  %23 = load atomic i64, ptr %16 seq_cst, align 8
  store i64 %23, ptr %6, align 8
  br label %24

24:                                               ; preds = %22, %20, %18
  %25 = load i64, ptr %6, align 8, !tbaa !46
  call void @llvm.lifetime.end.p0(i64 4, ptr %5) #20
  ret i64 %25
}

; Function Attrs: mustprogress nounwind uwtable
define linkonce_odr void @_ZN5folly23exception_shared_string5state4ruinEv(ptr noundef nonnull align 8 dereferenceable(16) %0) #0 comdat align 2 {
  %2 = alloca ptr, align 8
  %3 = alloca i64, align 8
  store ptr %0, ptr %2, align 8, !tbaa !92
  %4 = load ptr, ptr %2, align 8
  call void @llvm.lifetime.start.p0(i64 8, ptr %3) #20
  store i64 8, ptr %3, align 8, !tbaa !88
  %5 = getelementptr inbounds nuw %"struct.folly::exception_shared_string::state", ptr %4, i32 0, i32 0
  %6 = call noundef i64 @_ZNKSt13__atomic_baseImE4loadESt12memory_order(ptr noundef nonnull align 8 dereferenceable(8) %5, i32 noundef 0) #20
  %7 = icmp ne i64 %6, 0
  br i1 %7, label %8, label %12

8:                                                ; preds = %1
  %9 = getelementptr inbounds nuw %"struct.folly::exception_shared_string::state", ptr %4, i32 0, i32 0
  %10 = call noundef i64 @_ZNSt13__atomic_baseImE9fetch_subEmSt12memory_order(ptr noundef nonnull align 8 dereferenceable(8) %9, i64 noundef 1, i32 noundef 0) #20
  %11 = icmp ne i64 %10, 0
  br i1 %11, label %16, label %12

12:                                               ; preds = %8, %1
  %13 = getelementptr inbounds nuw %"struct.folly::exception_shared_string::state", ptr %4, i32 0, i32 1
  %14 = load i64, ptr %13, align 8, !tbaa !94
  %15 = call noundef i64 @_ZN5folly23exception_shared_string5state11object_sizeEm(i64 noundef %14) #20
  call void @_ZNK5folly18operator_delete_fnclEPvmSt11align_val_t(ptr noundef nonnull align 1 dereferenceable(1) @_ZN5folly15operator_deleteE, ptr noundef %4, i64 noundef %15, i64 noundef 8) #20
  br label %16

16:                                               ; preds = %12, %8
  call void @llvm.lifetime.end.p0(i64 8, ptr %3) #20
  ret void
}

; Function Attrs: mustprogress nounwind uwtable
define void @_ZN5folly23exception_shared_stringD2Ev(ptr noundef nonnull align 8 dereferenceable(8) %0) unnamed_addr #0 align 2 {
  %2 = alloca ptr, align 8
  store ptr %0, ptr %2, align 8, !tbaa !84
  %3 = load ptr, ptr %2, align 8
  %4 = getelementptr inbounds nuw %"class.folly::exception_shared_string", ptr %3, i32 0, i32 0
  %5 = load i64, ptr %4, align 8, !tbaa !86
  %6 = and i64 %5, 1
  %7 = icmp ne i64 %6, 0
  br i1 %7, label %8, label %9

8:                                                ; preds = %1
  br label %13

9:                                                ; preds = %1
  %10 = getelementptr inbounds nuw %"class.folly::exception_shared_string", ptr %3, i32 0, i32 0
  %11 = load i64, ptr %10, align 8, !tbaa !86
  %12 = inttoptr i64 %11 to ptr
  call void @_ZN5folly23exception_shared_string5state4ruinEv(ptr noundef nonnull align 8 dereferenceable(16) %12) #20
  br label %13

13:                                               ; preds = %9, %8
  ret void
}