; Function Attrs: mustprogress nounwind uwtable
define void @_ZN5folly23exception_shared_stringD2Ev(ptr noundef nonnull readonly align 8 captures(none) dereferenceable(8) %0) unnamed_addr #8 align 2 personality ptr @__gxx_personality_v0 {
  %2 = load i64, ptr %0, align 8, !tbaa !49
  %3 = and i64 %2, 1
  %.not = icmp eq i64 %3, 0
  br i1 %.not, label %4, label %_ZN5folly23exception_shared_string5state4ruinEv.exit

4:                                                ; preds = %1
  %5 = inttoptr i64 %2 to ptr
  %6 = load atomic i64, ptr %5 monotonic, align 8
  %.not.i = icmp eq i64 %6, 0
  br i1 %.not.i, label %9, label %7

7:                                                ; preds = %4
  %8 = atomicrmw sub ptr %5, i64 1 monotonic, align 8
  %.not1.i = icmp eq i64 %8, 0
  br i1 %.not1.i, label %9, label %_ZN5folly23exception_shared_string5state4ruinEv.exit

9:                                                ; preds = %7, %4
  %10 = getelementptr inbounds nuw i8, ptr %5, i64 8
  %11 = load i64, ptr %10, align 8, !tbaa !45
  %12 = add i64 %11, 17
  tail call void @_ZdlPvmSt11align_val_t(ptr noundef nonnull align 8 dereferenceable(16) %5, i64 noundef %12, i64 noundef 8) #22
  br label %_ZN5folly23exception_shared_string5state4ruinEv.exit

_ZN5folly23exception_shared_string5state4ruinEv.exit: ; preds = %9, %7, %1
  ret void
}